target datalayout = "e-m:e-p270:32:32-p271:32:32-p272:64:64-i64:64-i128:128-f80:128-n8:16:32:64-S128"
target triple = "x86_64-pc-linux-gnu"

%class.Compile = type <{ %class.Phase, i32, %class.Options, [4 x i8], ptr, i32, [4 x i8], ptr, ptr, ptr, ptr, ptr, i32, i32, i32, [4 x i8], i64, i8, i8, [2 x i8], i32, i8, i8, i8, i8, i8, i8, i8, i8, i8, [3 x i8], i32, i8, [3 x i8], [30 x i32], i8, [3 x i8], i32, i8, i8, i8, i8, i8, i8, i8, i8, i8, i8, i8, i8, i8, [3 x i8], i32, i32, [4 x i8], %class.Arena, ptr, ptr, ptr, ptr, %class.CHeapStringHolder, ptr, %class.GrowableArray, %class.GrowableArray.0, %class.GrowableArray.3, %class.GrowableArray.0, %class.GrowableArray.0, %class.GrowableArray.0, %class.GrowableArray.6, %class.GrowableArray.9, ptr, i32, i32, %class.VectorSet, %class.Arena, %class.Arena, ptr, ptr, ptr, ptr, ptr, ptr, ptr, ptr, ptr, %class.Arena, ptr, ptr, %class.CloneMap, i64, ptr, ptr, ptr, i32, i32, [64 x %"struct.Compile::AliasCacheEntry"], ptr, ptr, ptr, ptr, %class.GrowableArray, %class.GrowableArray, %class.GrowableArray, %class.GrowableArray, i32, i32, i8, [7 x i8], ptr, ptr, i32, [4 x i8], ptr, ptr, ptr, i32, i32, ptr, ptr, %class.RegMask, ptr, ptr, i32, [4 x i8], ptr, %class.TimeInstant, i32, [4 x i8] }>
%class.Phase = type { i32, ptr }
%class.Options = type { i8, i8, i8, i8, i8, i8, i8, i8 }
%class.CHeapStringHolder = type { ptr }
%class.GrowableArray.3 = type { %class.GrowableArrayWithAllocator.4, %class.GrowableArrayMetadata }
%class.GrowableArrayWithAllocator.4 = type { %class.GrowableArrayView.5 }
%class.GrowableArrayView.5 = type { %class.GrowableArrayBase, ptr }
%class.GrowableArrayBase = type { i32, i32 }
%class.GrowableArrayMetadata = type { i64 }
%class.GrowableArray.0 = type { %class.GrowableArrayWithAllocator.1, %class.GrowableArrayMetadata }
%class.GrowableArrayWithAllocator.1 = type { %class.GrowableArrayView.2 }
%class.GrowableArrayView.2 = type { %class.GrowableArrayBase, ptr }
%class.GrowableArray.6 = type { %class.GrowableArrayWithAllocator.7, %class.GrowableArrayMetadata }
%class.GrowableArrayWithAllocator.7 = type { %class.GrowableArrayView.8 }
%class.GrowableArrayView.8 = type { %class.GrowableArrayBase, ptr }
%class.GrowableArray.9 = type { %class.GrowableArrayWithAllocator.10, %class.GrowableArrayMetadata }
%class.GrowableArrayWithAllocator.10 = type { %class.GrowableArrayView.11 }
%class.GrowableArrayView.11 = type { %class.GrowableArrayBase, ptr }
%class.VectorSet = type { i32, ptr, i32, ptr }
%class.Arena = type { i8, i8, i64, ptr, ptr, ptr, ptr }
%class.CloneMap = type <{ i8, [7 x i8], ptr, i32, [4 x i8] }>
%"struct.Compile::AliasCacheEntry" = type { ptr, i32 }
%class.GrowableArray = type { %class.GrowableArrayWithAllocator, %class.GrowableArrayMetadata }
%class.GrowableArrayWithAllocator = type { %class.GrowableArrayView }
%class.GrowableArrayView = type { %class.GrowableArrayBase, ptr }
%class.RegMask = type { %union.anon, i32, i32 }
%union.anon = type { [11 x i64] }
%class.TimeInstant = type { %class.CompositeCounterRepresentation }
%class.CompositeCounterRepresentation = type { %class.Representation }
%class.Representation = type { %class.PairRep }
%class.PairRep = type { i64, i64 }
%class.Node = type <{ ptr, ptr, ptr, i32, i32, i32, i32, i32, i32, i32, [4 x i8] }>
%class.Node.base = type <{ ptr, ptr, ptr, i32, i32, i32, i32, i32, i32, i32 }>
%class.ProjNode = type <{ %class.Node.base, i32, i8, [7 x i8] }>

@g_assert_poison = external global ptr, align 8
@.str.7 = private unnamed_addr constant [35 x i8] c"src/hotspot/share/opto/compile.cpp\00", align 1
@.str.8 = private unnamed_addr constant [25 x i8] c"Did not find Start node!\00", align 1

; Function Attrs: mustprogress nounwind uwtable
define linkonce_odr hidden noundef ptr @_ZNK4Node8as_StartEv(ptr noundef nonnull align 8 dereferenceable(52) %0) #1 comdat align 2 {
  %2 = alloca ptr, align 8
  store ptr %0, ptr %2, align 8
  %3 = load ptr, ptr %2, align 8
  ret ptr %3
}

; Function Attrs: mustprogress nounwind uwtable
define linkonce_odr hidden noundef zeroext i1 @_ZNK4Node8is_StartEv(ptr noundef nonnull align 8 dereferenceable(52) %0) #1 comdat align 2 {
  %2 = alloca ptr, align 8
  store ptr %0, ptr %2, align 8
  %3 = load ptr, ptr %2, align 8
  %4 = getelementptr inbounds %class.Node, ptr %3, i32 0, i32 8
  %5 = load i32, ptr %4, align 4
  %6 = and i32 %5, 15
  %7 = icmp eq i32 %6, 9
  ret i1 %7
}

; Function Attrs: mustprogress nounwind uwtable
define linkonce_odr hidden noundef ptr @_ZNK7Compile4rootEv(ptr noundef nonnull align 8 dereferenceable(2316) %0) #1 comdat align 2 {
  %2 = alloca ptr, align 8
  store ptr %0, ptr %2, align 8
  %3 = load ptr, ptr %2, align 8
  %4 = getelementptr inbounds %class.Compile, ptr %3, i32 0, i32 77
  %5 = load ptr, ptr %4, align 8
  ret ptr %5
}

; Function Attrs: mustprogress nounwind uwtable
define linkonce_odr hidden noundef ptr @_ZNK4Node7as_ProjEv(ptr noundef nonnull align 8 dereferenceable(52) %0) #1 comdat align 2 {
  %2 = alloca ptr, align 8
  store ptr %0, ptr %2, align 8
  %3 = load ptr, ptr %2, align 8
  ret ptr %3
}

; Function Attrs: mustprogress nounwind uwtable
define linkonce_odr hidden noundef ptr @_ZNK4Node8fast_outEPPS_(ptr noundef nonnull align 8 dereferenceable(52) %0, ptr noundef %1) #1 comdat align 2 {
  %3 = alloca ptr, align 8
  %4 = alloca ptr, align 8
  store ptr %0, ptr %3, align 8
  store ptr %1, ptr %4, align 8
  %5 = load ptr, ptr %4, align 8
  %6 = load ptr, ptr %5, align 8
  ret ptr %6
}

; Function Attrs: mustprogress nounwind uwtable
define linkonce_odr hidden noundef ptr @_ZNK4Node9fast_outsERPPS_(ptr noundef nonnull align 8 dereferenceable(52) %0, ptr noundef nonnull align 8 dereferenceable(8) %1) #1 comdat align 2 {
  %3 = alloca ptr, align 8
  %4 = alloca ptr, align 8
  %5 = alloca ptr, align 8
  store ptr %0, ptr %3, align 8
  store ptr %1, ptr %4, align 8
  %6 = load ptr, ptr %3, align 8
  %7 = getelementptr inbounds %class.Node, ptr %6, i32 0, i32 2
  %8 = load ptr, ptr %7, align 8
  store ptr %8, ptr %5, align 8
  %9 = load ptr, ptr %5, align 8
  %10 = getelementptr inbounds %class.Node, ptr %6, i32 0, i32 5
  %11 = load i32, ptr %10, align 8
  %12 = zext i32 %11 to i64
  %13 = getelementptr inbounds ptr, ptr %9, i64 %12
  %14 = load ptr, ptr %4, align 8
  store ptr %13, ptr %14, align 8
  %15 = load ptr, ptr %5, align 8
  ret ptr %15
}

; Function Attrs: mustprogress nounwind uwtable
define hidden noundef ptr @_ZNK7Compile5startEv(ptr noundef nonnull align 8 dereferenceable(2316) %0) #1 align 2 {
  %2 = alloca ptr, align 8
  %3 = alloca ptr, align 8
  %4 = alloca ptr, align 8
  %5 = alloca ptr, align 8
  %6 = alloca ptr, align 8
  store ptr %0, ptr %3, align 8
  %7 = load ptr, ptr %3, align 8
  %8 = call noundef ptr @_ZNK7Compile4rootEv(ptr noundef nonnull align 8 dereferenceable(2316) %7)
  %9 = call noundef ptr @_ZNK4Node9fast_outsERPPS_(ptr noundef nonnull align 8 dereferenceable(52) %8, ptr noundef nonnull align 8 dereferenceable(8) %4)
  store ptr %9, ptr %5, align 8
  br label %10

10:                                               ; preds = %24, %1
  %11 = load ptr, ptr %5, align 8
  %12 = load ptr, ptr %4, align 8
  %13 = icmp ult ptr %11, %12
  br i1 %13, label %14, label %27

14:                                               ; preds = %10
  %15 = call noundef ptr @_ZNK7Compile4rootEv(ptr noundef nonnull align 8 dereferenceable(2316) %7)
  %16 = load ptr, ptr %5, align 8
  %17 = call noundef ptr @_ZNK4Node8fast_outEPPS_(ptr noundef nonnull align 8 dereferenceable(52) %15, ptr noundef %16)
  store ptr %17, ptr %6, align 8
  %18 = load ptr, ptr %6, align 8
  %19 = call noundef zeroext i1 @_ZNK4Node8is_StartEv(ptr noundef nonnull align 8 dereferenceable(52) %18)
  br i1 %19, label %20, label %23

20:                                               ; preds = %14
  %21 = load ptr, ptr %6, align 8
  %22 = call noundef ptr @_ZNK4Node8as_StartEv(ptr noundef nonnull align 8 dereferenceable(52) %21)
  store ptr %22, ptr %2, align 8
  br label %31

23:                                               ; preds = %14
  br label %24

24:                                               ; preds = %23
  %25 = load ptr, ptr %5, align 8
  %26 = getelementptr inbounds ptr, ptr %25, i32 1
  store ptr %26, ptr %5, align 8
  br label %10, !llvm.loop !26

27:                                               ; preds = %10
  br label %28

28:                                               ; preds = %27
  %29 = load ptr, ptr @g_assert_poison, align 8
  store i8 88, ptr %29, align 1
  call void (i32, ptr, i32, ptr, ...) @_Z12report_fatal11VMErrorTypePKciS1_z(i32 noundef -536870912, ptr noundef @.str.7, i32 noundef 1128, ptr noundef @.str.8) #10
  unreachable

30:                                               ; No predecessors!
  store ptr null, ptr %2, align 8
  br label %31

31:                                               ; preds = %30, %20
  %32 = load ptr, ptr %2, align 8
  ret ptr %32
}

; Function Attrs: mustprogress nounwind uwtable
define hidden noundef ptr @_ZN7Compile16immutable_memoryEv(ptr noundef nonnull align 8 dereferenceable(2316) %0) #1 align 2 {
  %2 = alloca ptr, align 8
  %3 = alloca ptr, align 8
  %4 = alloca ptr, align 8
  %5 = alloca ptr, align 8
  %6 = alloca ptr, align 8
  %7 = alloca ptr, align 8
  store ptr %0, ptr %3, align 8
  %8 = load ptr, ptr %3, align 8
  %9 = getelementptr inbounds %class.Compile, ptr %8, i32 0, i32 79
  %10 = load ptr, ptr %9, align 8
  %11 = icmp ne ptr %10, null
  br i1 %11, label %12, label %15

12:                                               ; preds = %1
  %13 = getelementptr inbounds %class.Compile, ptr %8, i32 0, i32 79
  %14 = load ptr, ptr %13, align 8
  store ptr %14, ptr %2, align 8
  br label %46

15:                                               ; preds = %1
  %16 = call noundef ptr @_ZNK7Compile5startEv(ptr noundef nonnull align 8 dereferenceable(2316) %8)
  store ptr %16, ptr %4, align 8
  %17 = load ptr, ptr %4, align 8
  %18 = call noundef ptr @_ZNK4Node9fast_outsERPPS_(ptr noundef nonnull align 8 dereferenceable(52) %17, ptr noundef nonnull align 8 dereferenceable(8) %5)
  store ptr %18, ptr %6, align 8
  br label %19

19:                                               ; preds = %39, %15
  br i1 true, label %20, label %42

20:                                               ; preds = %19
  %21 = load ptr, ptr %4, align 8
  %22 = load ptr, ptr %6, align 8
  %23 = call noundef ptr @_ZNK4Node8fast_outEPPS_(ptr noundef nonnull align 8 dereferenceable(52) %21, ptr noundef %22)
  store ptr %23, ptr %7, align 8
  %24 = load ptr, ptr %7, align 8
  %25 = load ptr, ptr %4, align 8
  %26 = icmp ne ptr %24, %25
  br i1 %26, label %27, label %38

27:                                               ; preds = %20
  %28 = load ptr, ptr %7, align 8
  %29 = call noundef ptr @_ZNK4Node7as_ProjEv(ptr noundef nonnull align 8 dereferenceable(52) %28)
  %30 = getelementptr inbounds %class.ProjNode, ptr %29, i32 0, i32 1
  %31 = load i32, ptr %30, align 4
  %32 = icmp eq i32 %31, 2
  br i1 %32, label %33, label %38

33:                                               ; preds = %27
  %34 = load ptr, ptr %7, align 8
  %35 = getelementptr inbounds %class.Compile, ptr %8, i32 0, i32 79
  store ptr %34, ptr %35, align 8
  %36 = getelementptr inbounds %class.Compile, ptr %8, i32 0, i32 79
  %37 = load ptr, ptr %36, align 8
  store ptr %37, ptr %2, align 8
  br label %46

38:                                               ; preds = %27, %20
  br label %39

39:                                               ; preds = %38
  %40 = load ptr, ptr %6, align 8
  %41 = getelementptr inbounds ptr, ptr %40, i32 1
  store ptr %41, ptr %6, align 8
  br label %19, !llvm.loop !30

42:                                               ; preds = %19
  br label %43

43:                                               ; preds = %42
  %44 = load ptr, ptr @g_assert_poison, align 8
  store i8 88, ptr %44, align 1
  call void @_Z28report_should_not_reach_herePKci(ptr noundef @.str.7, i32 noundef 1146) #10
  unreachable

45:                                               ; No predecessors!
  store ptr null, ptr %2, align 8
  br label %46

46:                                               ; preds = %45, %33, %12
  %47 = load ptr, ptr %2, align 8
  ret ptr %47
}