; Function Attrs: mustprogress nounwind uwtable
define hidden noundef ptr @_ZN7Compile16immutable_memoryEv(ptr nocapture noundef nonnull align 8 dereferenceable(2316) %0) local_unnamed_addr #0 align 2 {
  %2 = getelementptr inbounds i8, ptr %0, i64 752
  %3 = load ptr, ptr %2, align 8
  %.not = icmp eq ptr %3, null
  br i1 %.not, label %4, label %33

4:                                                ; preds = %1
  %5 = getelementptr inbounds i8, ptr %0, i64 736
  %6 = load ptr, ptr %5, align 8
  %7 = getelementptr inbounds i8, ptr %6, i64 16
  %8 = load ptr, ptr %7, align 8
  %9 = getelementptr inbounds i8, ptr %6, i64 32
  %10 = load i32, ptr %9, align 8
  %11 = zext i32 %10 to i64
  %12 = getelementptr inbounds ptr, ptr %8, i64 %11
  %.not.i = icmp eq i32 %10, 0
  br i1 %.not.i, label %._crit_edge.i, label %.lr.ph.i

13:                                               ; preds = %.lr.ph.i
  %14 = getelementptr inbounds i8, ptr %.07.i, i64 8
  %15 = icmp ult ptr %14, %12
  br i1 %15, label %.lr.ph.i, label %._crit_edge.i, !llvm.loop !32

.lr.ph.i:                                         ; preds = %4, %13
  %.07.i = phi ptr [ %14, %13 ], [ %8, %4 ]
  %16 = load ptr, ptr %.07.i, align 8
  %17 = getelementptr inbounds i8, ptr %16, i64 44
  %18 = load i32, ptr %17, align 4
  %19 = and i32 %18, 15
  %20 = icmp eq i32 %19, 9
  br i1 %20, label %_ZNK7Compile5startEv.exit, label %13

._crit_edge.i:                                    ; preds = %13, %4
  %21 = load ptr, ptr @g_assert_poison, align 8
  store i8 88, ptr %21, align 1
  tail call void (i32, ptr, i32, ptr, ...) @_Z12report_fatal11VMErrorTypePKciS1_z(i32 noundef -536870912, ptr noundef nonnull @.str.7, i32 noundef 1128, ptr noundef nonnull @.str.8) #18
  unreachable

_ZNK7Compile5startEv.exit:                        ; preds = %.lr.ph.i
  %22 = getelementptr inbounds i8, ptr %16, i64 16
  %23 = load ptr, ptr %22, align 8
  br label %24

24:                                               ; preds = %31, %_ZNK7Compile5startEv.exit
  %.010 = phi ptr [ %23, %_ZNK7Compile5startEv.exit ], [ %32, %31 ]
  %25 = load ptr, ptr %.010, align 8
  %.not13 = icmp eq ptr %25, %16
  br i1 %.not13, label %31, label %26

26:                                               ; preds = %24
  %27 = getelementptr inbounds i8, ptr %25, i64 52
  %28 = load i32, ptr %27, align 4
  %29 = icmp eq i32 %28, 2
  br i1 %29, label %30, label %31

30:                                               ; preds = %26
  store ptr %25, ptr %2, align 8
  br label %33

31:                                               ; preds = %24, %26
  %32 = getelementptr inbounds i8, ptr %.010, i64 8
  br label %24, !llvm.loop !38

33:                                               ; preds = %1, %30
  %.0 = phi ptr [ %25, %30 ], [ %3, %1 ]
  ret ptr %.0
}